; Function Attrs: nofree norecurse nosync nounwind memory(readwrite, inaccessiblemem: none) uwtable
define void @denseScale(double noundef %0, ptr noundef readonly captures(none) %1, i64 noundef %2, i64 noundef %3) local_unnamed_addr #2 {
  %5 = icmp sgt i64 %3, 0
  %6 = icmp sgt i64 %2, 0
  %or.cond = and i1 %5, %6
  br i1 %or.cond, label %.lr.ph.us, label %._crit_edge15

.lr.ph.us:                                        ; preds = %4, %._crit_edge.us
  %.01012.us = phi i64 [ %14, %._crit_edge.us ], [ 0, %4 ]
  %7 = getelementptr inbounds nuw ptr, ptr %1, i64 %.01012.us
  %8 = load ptr, ptr %7, align 8, !tbaa !16
  br label %9

9:                                                ; preds = %.lr.ph.us, %9
  %.011.us = phi i64 [ 0, %.lr.ph.us ], [ %13, %9 ]
  %10 = getelementptr inbounds nuw double, ptr %8, i64 %.011.us
  %11 = load double, ptr %10, align 8, !tbaa !17
  %12 = fmul double %0, %11
  store double %12, ptr %10, align 8, !tbaa !17
  %13 = add nuw nsw i64 %.011.us, 1
  %exitcond.not = icmp eq i64 %13, %2
  br i1 %exitcond.not, label %._crit_edge.us, label %9, !llvm.loop !51

._crit_edge.us:                                   ; preds = %9
  %14 = add nuw nsw i64 %.01012.us, 1
  %exitcond17.not = icmp eq i64 %14, %3
  br i1 %exitcond17.not, label %._crit_edge15, label %.lr.ph.us, !llvm.loop !52

._crit_edge15:                                    ; preds = %._crit_edge.us, %4
  ret void
}